; Function Attrs: null_pointer_is_valid sspstrong uwtable
define hidden i32 @witness_dissect_enum_interfaceInfo_state(ptr noundef %0, i32 noundef %1, ptr noundef %2, ptr noundef %3, ptr noundef %4, ptr noundef %5, i32 noundef %6, ptr noundef captures(address_is_null) %7) local_unnamed_addr #0 {
  %9 = alloca i16, align 2
  call void @llvm.lifetime.start.p0(i64 2, ptr nonnull %9) #6
  store i16 0, ptr %9, align 2
  %.not = icmp eq ptr %7, null
  br i1 %.not, label %.thread, label %11

.thread:                                          ; preds = %8
  %10 = call i32 @dissect_ndr_uint16(ptr noundef %0, i32 noundef %1, ptr noundef %2, ptr noundef %3, ptr noundef %4, ptr noundef %5, i32 noundef %6, ptr noundef nonnull %9)
  br label %15

11:                                               ; preds = %8
  %12 = load i16, ptr %7, align 2
  store i16 %12, ptr %9, align 2
  %13 = call i32 @dissect_ndr_uint16(ptr noundef %0, i32 noundef %1, ptr noundef %2, ptr noundef %3, ptr noundef %4, ptr noundef %5, i32 noundef %6, ptr noundef nonnull %9)
  %14 = load i16, ptr %9, align 2
  store i16 %14, ptr %7, align 2
  br label %15

15:                                               ; preds = %.thread, %11
  %16 = phi i32 [ %10, %.thread ], [ %13, %11 ]
  call void @llvm.lifetime.end.p0(i64 2, ptr nonnull %9) #6
  ret i32 %16
}